target datalayout = "e-m:e-p270:32:32-p271:32:32-p272:64:64-i64:64-i128:128-f80:128-n8:16:32:64-S128"
target triple = "x86_64-pc-linux-gnu"

%struct.sortedSymbol_t = type { i8, i8 }
%union.HUF_DSeqX6 = type { i32 }
%struct.HUF_DDescX6 = type { i8, i8 }

; Function Attrs: nounwind uwtable
define internal void @HUF_fillDTableX6LevelN(ptr noundef %0, ptr noundef %1, i32 noundef %2, ptr noundef %3, i32 noundef %4, i32 noundef %5, i32 noundef %6, ptr noundef %7, i32 noundef %8, ptr noundef %9, i32 noundef %10, i32 %11, i16 %12) #0 {
  %14 = alloca %union.HUF_DSeqX6, align 4
  %15 = alloca %struct.HUF_DDescX6, align 1
  %16 = alloca ptr, align 8
  %17 = alloca ptr, align 8
  %18 = alloca i32, align 4
  %19 = alloca ptr, align 8
  %20 = alloca i32, align 4
  %21 = alloca i32, align 4
  %22 = alloca i32, align 4
  %23 = alloca ptr, align 8
  %24 = alloca i32, align 4
  %25 = alloca ptr, align 8
  %26 = alloca i32, align 4
  %27 = alloca i32, align 4
  %28 = alloca i32, align 4
  %29 = alloca i32, align 4
  %30 = alloca [17 x i32], align 16
  %31 = alloca i32, align 4
  %32 = alloca i32, align 4
  %33 = alloca i32, align 4
  %34 = alloca i32, align 4
  %35 = alloca i8, align 1
  %36 = alloca i32, align 4
  %37 = alloca i32, align 4
  %38 = alloca i32, align 4
  %39 = alloca i32, align 4
  %40 = alloca i32, align 4
  %41 = alloca i32, align 4
  %42 = alloca i32, align 4
  %43 = alloca i32, align 4
  %44 = getelementptr inbounds nuw %union.HUF_DSeqX6, ptr %14, i32 0, i32 0
  store i32 %11, ptr %44, align 4
  store i16 %12, ptr %15, align 1
  store ptr %0, ptr %16, align 8, !tbaa !3
  store ptr %1, ptr %17, align 8, !tbaa !3
  store i32 %2, ptr %18, align 4, !tbaa !15
  store ptr %3, ptr %19, align 8, !tbaa !33
  store i32 %4, ptr %20, align 4, !tbaa !15
  store i32 %5, ptr %21, align 4, !tbaa !15
  store i32 %6, ptr %22, align 4, !tbaa !15
  store ptr %7, ptr %23, align 8, !tbaa !3
  store i32 %8, ptr %24, align 4, !tbaa !15
  store ptr %9, ptr %25, align 8, !tbaa !33
  store i32 %10, ptr %26, align 4, !tbaa !15
  call void @llvm.lifetime.start.p0(i64 4, ptr %27) #9
  %45 = load i32, ptr %26, align 4, !tbaa !15
  %46 = load i32, ptr %18, align 4, !tbaa !15
  %47 = sub i32 %45, %46
  store i32 %47, ptr %27, align 4, !tbaa !15
  call void @llvm.lifetime.start.p0(i64 4, ptr %28) #9
  %48 = load i32, ptr %26, align 4, !tbaa !15
  %49 = load i32, ptr %22, align 4, !tbaa !15
  %50 = sub i32 %48, %49
  store i32 %50, ptr %28, align 4, !tbaa !15
  call void @llvm.lifetime.start.p0(i64 4, ptr %29) #9
  %51 = getelementptr inbounds nuw %struct.HUF_DDescX6, ptr %15, i32 0, i32 1
  %52 = load i8, ptr %51, align 1, !tbaa !51
  %53 = zext i8 %52 to i32
  store i32 %53, ptr %29, align 4, !tbaa !15
  call void @llvm.lifetime.start.p0(i64 68, ptr %30) #9
  call void @llvm.lifetime.start.p0(i64 4, ptr %31) #9
  call void @llvm.lifetime.start.p0(i64 4, ptr %32) #9
  %54 = getelementptr inbounds [17 x i32], ptr %30, i64 0, i64 0
  %55 = load ptr, ptr %19, align 8, !tbaa !33
  %56 = load i32, ptr %20, align 4, !tbaa !15
  %57 = zext i32 %56 to i64
  %58 = getelementptr inbounds nuw [17 x i32], ptr %55, i64 %57
  %59 = getelementptr inbounds [17 x i32], ptr %58, i64 0, i64 0
  call void @llvm.memcpy.p0.p0.i64(ptr align 16 %54, ptr align 4 %59, i64 68, i1 false)
  %60 = load i32, ptr %21, align 4, !tbaa !15
  %61 = icmp sgt i32 %60, 1
  br i1 %61, label %62, label %84

62:                                               ; preds = %13
  call void @llvm.lifetime.start.p0(i64 4, ptr %33) #9
  call void @llvm.lifetime.start.p0(i64 4, ptr %34) #9
  %63 = load i32, ptr %21, align 4, !tbaa !15
  %64 = sext i32 %63 to i64
  %65 = getelementptr inbounds [17 x i32], ptr %30, i64 0, i64 %64
  %66 = load i32, ptr %65, align 4, !tbaa !15
  store i32 %66, ptr %34, align 4, !tbaa !15
  store i32 0, ptr %33, align 4, !tbaa !15
  br label %67

67:                                               ; preds = %80, %62
  %68 = load i32, ptr %33, align 4, !tbaa !15
  %69 = load i32, ptr %34, align 4, !tbaa !15
  %70 = icmp ult i32 %68, %69
  br i1 %70, label %71, label %83

71:                                               ; preds = %67
  %72 = load ptr, ptr %17, align 8, !tbaa !3
  %73 = load i32, ptr %33, align 4, !tbaa !15
  %74 = zext i32 %73 to i64
  %75 = getelementptr inbounds nuw %union.HUF_DSeqX6, ptr %72, i64 %74
  call void @llvm.memcpy.p0.p0.i64(ptr align 4 %75, ptr align 4 %14, i64 4, i1 false), !tbaa.struct !108
  %76 = load ptr, ptr %16, align 8, !tbaa !3
  %77 = load i32, ptr %33, align 4, !tbaa !15
  %78 = zext i32 %77 to i64
  %79 = getelementptr inbounds nuw %struct.HUF_DDescX6, ptr %76, i64 %78
  call void @llvm.memcpy.p0.p0.i64(ptr align 1 %79, ptr align 1 %15, i64 2, i1 false), !tbaa.struct !52
  br label %80

80:                                               ; preds = %71
  %81 = load i32, ptr %33, align 4, !tbaa !15
  %82 = add i32 %81, 1
  store i32 %82, ptr %33, align 4, !tbaa !15
  br label %67, !llvm.loop !109

83:                                               ; preds = %67
  call void @llvm.lifetime.end.p0(i64 4, ptr %34) #9
  call void @llvm.lifetime.end.p0(i64 4, ptr %33) #9
  br label %84

84:                                               ; preds = %83, %13
  %85 = getelementptr inbounds nuw %struct.HUF_DDescX6, ptr %15, i32 0, i32 1
  %86 = load i8, ptr %85, align 1, !tbaa !51
  %87 = add i8 %86, 1
  store i8 %87, ptr %85, align 1, !tbaa !51
  %88 = load ptr, ptr %25, align 8, !tbaa !33
  %89 = load i32, ptr %21, align 4, !tbaa !15
  %90 = sext i32 %89 to i64
  %91 = getelementptr inbounds i32, ptr %88, i64 %90
  %92 = load i32, ptr %91, align 4, !tbaa !15
  store i32 %92, ptr %31, align 4, !tbaa !15
  %93 = load i32, ptr %31, align 4, !tbaa !15
  store i32 %93, ptr %32, align 4, !tbaa !15
  br label %94

94:                                               ; preds = %200, %84
  %95 = load i32, ptr %32, align 4, !tbaa !15
  %96 = load i32, ptr %24, align 4, !tbaa !15
  %97 = icmp ult i32 %95, %96
  br i1 %97, label %98, label %203

98:                                               ; preds = %94
  call void @llvm.lifetime.start.p0(i64 1, ptr %35) #9
  %99 = load ptr, ptr %23, align 8, !tbaa !3
  %100 = load i32, ptr %32, align 4, !tbaa !15
  %101 = zext i32 %100 to i64
  %102 = getelementptr inbounds nuw %struct.sortedSymbol_t, ptr %99, i64 %101
  %103 = getelementptr inbounds nuw %struct.sortedSymbol_t, ptr %102, i32 0, i32 0
  %104 = load i8, ptr %103, align 1, !tbaa !49
  store i8 %104, ptr %35, align 1, !tbaa !19
  call void @llvm.lifetime.start.p0(i64 4, ptr %36) #9
  %105 = load ptr, ptr %23, align 8, !tbaa !3
  %106 = load i32, ptr %32, align 4, !tbaa !15
  %107 = zext i32 %106 to i64
  %108 = getelementptr inbounds nuw %struct.sortedSymbol_t, ptr %105, i64 %107
  %109 = getelementptr inbounds nuw %struct.sortedSymbol_t, ptr %108, i32 0, i32 1
  %110 = load i8, ptr %109, align 1, !tbaa !51
  %111 = zext i8 %110 to i32
  store i32 %111, ptr %36, align 4, !tbaa !15
  call void @llvm.lifetime.start.p0(i64 4, ptr %37) #9
  %112 = load i32, ptr %26, align 4, !tbaa !15
  %113 = load i32, ptr %36, align 4, !tbaa !15
  %114 = sub i32 %112, %113
  store i32 %114, ptr %37, align 4, !tbaa !15
  call void @llvm.lifetime.start.p0(i64 4, ptr %38) #9
  %115 = load i32, ptr %20, align 4, !tbaa !15
  %116 = load i32, ptr %37, align 4, !tbaa !15
  %117 = add i32 %115, %116
  store i32 %117, ptr %38, align 4, !tbaa !15
  call void @llvm.lifetime.start.p0(i64 4, ptr %39) #9
  %118 = load i32, ptr %36, align 4, !tbaa !15
  %119 = zext i32 %118 to i64
  %120 = getelementptr inbounds nuw [17 x i32], ptr %30, i64 0, i64 %119
  %121 = load i32, ptr %120, align 4, !tbaa !15
  store i32 %121, ptr %39, align 4, !tbaa !15
  call void @llvm.lifetime.start.p0(i64 4, ptr %40) #9
  %122 = load i32, ptr %18, align 4, !tbaa !15
  %123 = load i32, ptr %37, align 4, !tbaa !15
  %124 = sub nsw i32 %122, %123
  %125 = shl i32 1, %124
  store i32 %125, ptr %40, align 4, !tbaa !15
  %126 = load i8, ptr %35, align 1, !tbaa !19
  %127 = load i32, ptr %29, align 4, !tbaa !15
  %128 = zext i32 %127 to i64
  %129 = getelementptr inbounds nuw [4 x i8], ptr %14, i64 0, i64 %128
  store i8 %126, ptr %129, align 1, !tbaa !19
  %130 = load i32, ptr %38, align 4, !tbaa !15
  %131 = trunc i32 %130 to i8
  %132 = getelementptr inbounds nuw %struct.HUF_DDescX6, ptr %15, i32 0, i32 0
  store i8 %131, ptr %132, align 1, !tbaa !49
  %133 = load i32, ptr %29, align 4, !tbaa !15
  %134 = icmp ult i32 %133, 3
  br i1 %134, label %135, label %171

135:                                              ; preds = %98
  %136 = load i32, ptr %18, align 4, !tbaa !15
  %137 = load i32, ptr %38, align 4, !tbaa !15
  %138 = sub nsw i32 %136, %137
  %139 = load i32, ptr %28, align 4, !tbaa !15
  %140 = icmp sge i32 %138, %139
  br i1 %140, label %141, label %171

141:                                              ; preds = %135
  call void @llvm.lifetime.start.p0(i64 4, ptr %41) #9
  %142 = load i32, ptr %38, align 4, !tbaa !15
  %143 = load i32, ptr %27, align 4, !tbaa !15
  %144 = add nsw i32 %142, %143
  store i32 %144, ptr %41, align 4, !tbaa !15
  %145 = load i32, ptr %41, align 4, !tbaa !15
  %146 = icmp slt i32 %145, 1
  br i1 %146, label %147, label %148

147:                                              ; preds = %141
  store i32 1, ptr %41, align 4, !tbaa !15
  br label %148

148:                                              ; preds = %147, %141
  %149 = load ptr, ptr %16, align 8, !tbaa !3
  %150 = load i32, ptr %39, align 4, !tbaa !15
  %151 = zext i32 %150 to i64
  %152 = getelementptr inbounds nuw %struct.HUF_DDescX6, ptr %149, i64 %151
  %153 = load ptr, ptr %17, align 8, !tbaa !3
  %154 = load i32, ptr %39, align 4, !tbaa !15
  %155 = zext i32 %154 to i64
  %156 = getelementptr inbounds nuw %union.HUF_DSeqX6, ptr %153, i64 %155
  %157 = load i32, ptr %18, align 4, !tbaa !15
  %158 = load i32, ptr %37, align 4, !tbaa !15
  %159 = sub nsw i32 %157, %158
  %160 = load ptr, ptr %19, align 8, !tbaa !33
  %161 = load i32, ptr %38, align 4, !tbaa !15
  %162 = load i32, ptr %41, align 4, !tbaa !15
  %163 = load i32, ptr %22, align 4, !tbaa !15
  %164 = load ptr, ptr %23, align 8, !tbaa !3
  %165 = load i32, ptr %24, align 4, !tbaa !15
  %166 = load ptr, ptr %25, align 8, !tbaa !33
  %167 = load i32, ptr %26, align 4, !tbaa !15
  %168 = getelementptr inbounds nuw %union.HUF_DSeqX6, ptr %14, i32 0, i32 0
  %169 = load i32, ptr %168, align 4
  %170 = load i16, ptr %15, align 1
  call void @HUF_fillDTableX6LevelN(ptr noundef %152, ptr noundef %156, i32 noundef %159, ptr noundef %160, i32 noundef %161, i32 noundef %162, i32 noundef %163, ptr noundef %164, i32 noundef %165, ptr noundef %166, i32 noundef %167, i32 %169, i16 %170)
  call void @llvm.lifetime.end.p0(i64 4, ptr %41) #9
  br label %193

171:                                              ; preds = %135, %98
  call void @llvm.lifetime.start.p0(i64 4, ptr %42) #9
  call void @llvm.lifetime.start.p0(i64 4, ptr %43) #9
  %172 = load i32, ptr %39, align 4, !tbaa !15
  %173 = load i32, ptr %40, align 4, !tbaa !15
  %174 = add i32 %172, %173
  store i32 %174, ptr %43, align 4, !tbaa !15
  %175 = load i32, ptr %39, align 4, !tbaa !15
  store i32 %175, ptr %42, align 4, !tbaa !15
  br label %176

176:                                              ; preds = %189, %171
  %177 = load i32, ptr %42, align 4, !tbaa !15
  %178 = load i32, ptr %43, align 4, !tbaa !15
  %179 = icmp ult i32 %177, %178
  br i1 %179, label %180, label %192

180:                                              ; preds = %176
  %181 = load ptr, ptr %16, align 8, !tbaa !3
  %182 = load i32, ptr %42, align 4, !tbaa !15
  %183 = zext i32 %182 to i64
  %184 = getelementptr inbounds nuw %struct.HUF_DDescX6, ptr %181, i64 %183
  call void @llvm.memcpy.p0.p0.i64(ptr align 1 %184, ptr align 1 %15, i64 2, i1 false), !tbaa.struct !52
  %185 = load ptr, ptr %17, align 8, !tbaa !3
  %186 = load i32, ptr %42, align 4, !tbaa !15
  %187 = zext i32 %186 to i64
  %188 = getelementptr inbounds nuw %union.HUF_DSeqX6, ptr %185, i64 %187
  call void @llvm.memcpy.p0.p0.i64(ptr align 4 %188, ptr align 4 %14, i64 4, i1 false), !tbaa.struct !108
  br label %189

189:                                              ; preds = %180
  %190 = load i32, ptr %42, align 4, !tbaa !15
  %191 = add i32 %190, 1
  store i32 %191, ptr %42, align 4, !tbaa !15
  br label %176, !llvm.loop !110

192:                                              ; preds = %176
  call void @llvm.lifetime.end.p0(i64 4, ptr %43) #9
  call void @llvm.lifetime.end.p0(i64 4, ptr %42) #9
  br label %193

193:                                              ; preds = %192, %148
  %194 = load i32, ptr %40, align 4, !tbaa !15
  %195 = load i32, ptr %36, align 4, !tbaa !15
  %196 = zext i32 %195 to i64
  %197 = getelementptr inbounds nuw [17 x i32], ptr %30, i64 0, i64 %196
  %198 = load i32, ptr %197, align 4, !tbaa !15
  %199 = add i32 %198, %194
  store i32 %199, ptr %197, align 4, !tbaa !15
  call void @llvm.lifetime.end.p0(i64 4, ptr %40) #9
  call void @llvm.lifetime.end.p0(i64 4, ptr %39) #9
  call void @llvm.lifetime.end.p0(i64 4, ptr %38) #9
  call void @llvm.lifetime.end.p0(i64 4, ptr %37) #9
  call void @llvm.lifetime.end.p0(i64 4, ptr %36) #9
  call void @llvm.lifetime.end.p0(i64 1, ptr %35) #9
  br label %200

200:                                              ; preds = %193
  %201 = load i32, ptr %32, align 4, !tbaa !15
  %202 = add i32 %201, 1
  store i32 %202, ptr %32, align 4, !tbaa !15
  br label %94, !llvm.loop !111

203:                                              ; preds = %94
  call void @llvm.lifetime.end.p0(i64 4, ptr %32) #9
  call void @llvm.lifetime.end.p0(i64 4, ptr %31) #9
  call void @llvm.lifetime.end.p0(i64 68, ptr %30) #9
  call void @llvm.lifetime.end.p0(i64 4, ptr %29) #9
  call void @llvm.lifetime.end.p0(i64 4, ptr %28) #9
  call void @llvm.lifetime.end.p0(i64 4, ptr %27) #9
  ret void
}