; Function Attrs: nofree nosync nounwind memory(argmem: readwrite) uwtable
define internal fastcc void @HUF_fillDTableX6LevelN(ptr noundef nonnull writeonly captures(none) %0, ptr noundef nonnull writeonly captures(none) %1, i32 noundef %2, ptr noundef nonnull readonly captures(none) %3, i32 noundef %4, i32 noundef %5, i32 noundef range(i32 0, 17) %6, ptr noundef nonnull readonly captures(none) %7, i32 noundef %8, ptr noundef nonnull readonly captures(none) %9, i32 noundef %10, i32 %11, i16 %12) unnamed_addr #16 {
  %14 = alloca %union.HUF_DSeqX6, align 4
  %15 = alloca [17 x i32], align 16
  %.fr82 = freeze i16 %12
  store i32 %11, ptr %14, align 4
  %.sroa.0.0.extract.trunc = trunc i16 %.fr82 to i8
  %.sroa.5.0.extract.shift = lshr i16 %.fr82, 8
  %.sroa.5.0.extract.trunc = trunc nuw i16 %.sroa.5.0.extract.shift to i8
  %16 = sub i32 %10, %2
  %17 = sub i32 %10, %6
  call void @llvm.lifetime.start.p0(i64 68, ptr nonnull %15) #20
  %18 = zext i32 %4 to i64
  %19 = getelementptr inbounds nuw [17 x i32], ptr %3, i64 %18
  call void @llvm.memcpy.p0.p0.i64(ptr noundef nonnull align 16 dereferenceable(68) %15, ptr noundef nonnull align 4 dereferenceable(68) %19, i64 68, i1 false)
  %20 = icmp sgt i32 %5, 1
  br i1 %20, label %21, label %.loopexit75

21:                                               ; preds = %13
  %22 = zext nneg i32 %5 to i64
  %23 = getelementptr inbounds nuw [17 x i32], ptr %15, i64 0, i64 %22
  %24 = load i32, ptr %23, align 4, !tbaa !22
  %.not81 = icmp eq i32 %24, 0
  br i1 %.not81, label %.loopexit75, label %.lr.ph.preheader

.lr.ph.preheader:                                 ; preds = %21
  %wide.trip.count = zext i32 %24 to i64
  br label %.lr.ph

.lr.ph:                                           ; preds = %.lr.ph.preheader, %.lr.ph
  %indvars.iv = phi i64 [ 0, %.lr.ph.preheader ], [ %indvars.iv.next, %.lr.ph ]
  %25 = getelementptr inbounds nuw %union.HUF_DSeqX6, ptr %1, i64 %indvars.iv
  store i32 %11, ptr %25, align 4, !tbaa !7
  %26 = getelementptr inbounds nuw %struct.HUF_DDescX6, ptr %0, i64 %indvars.iv
  store i8 %.sroa.0.0.extract.trunc, ptr %26, align 1, !tbaa !7
  %.sroa.5.0..sroa_idx = getelementptr inbounds nuw i8, ptr %26, i64 1
  store i8 %.sroa.5.0.extract.trunc, ptr %.sroa.5.0..sroa_idx, align 1, !tbaa !7
  %indvars.iv.next = add nuw nsw i64 %indvars.iv, 1
  %exitcond.not = icmp eq i64 %indvars.iv.next, %wide.trip.count
  br i1 %exitcond.not, label %.loopexit75, label %.lr.ph, !llvm.loop !89

.loopexit75:                                      ; preds = %.lr.ph, %21, %13
  %27 = add i8 %.sroa.5.0.extract.trunc, 1
  %28 = sext i32 %5 to i64
  %29 = getelementptr inbounds i32, ptr %9, i64 %28
  %30 = load i32, ptr %29, align 4, !tbaa !22
  %31 = icmp ult i32 %30, %8
  br i1 %31, label %.lr.ph80, label %._crit_edge

.lr.ph80:                                         ; preds = %.loopexit75
  %32 = zext nneg i16 %.sroa.5.0.extract.shift to i64
  %33 = getelementptr inbounds nuw [4 x i8], ptr %14, i64 0, i64 %32
  %34 = icmp ugt i16 %.fr82, 767
  %.sroa.5.0.insert.ext = zext nneg i8 %27 to i16
  %.sroa.5.0.insert.shift = shl nuw nsw i16 %.sroa.5.0.insert.ext, 8
  %35 = zext i32 %30 to i64
  %wide.trip.count103 = zext i32 %8 to i64
  br i1 %34, label %.lr.ph80.split.us, label %.lr.ph80.split

.lr.ph80.split.us:                                ; preds = %.lr.ph80, %.loopexit.us
  %indvars.iv100 = phi i64 [ %indvars.iv.next101, %.loopexit.us ], [ %35, %.lr.ph80 ]
  %36 = getelementptr inbounds nuw %struct.sortedSymbol_t, ptr %7, i64 %indvars.iv100
  %37 = load i8, ptr %36, align 1, !tbaa !48
  %38 = getelementptr inbounds nuw i8, ptr %36, i64 1
  %39 = load i8, ptr %38, align 1, !tbaa !50
  %40 = zext i8 %39 to i32
  %41 = sub i32 %10, %40
  %42 = add i32 %41, %4
  %43 = zext i8 %39 to i64
  %44 = getelementptr inbounds nuw [17 x i32], ptr %15, i64 0, i64 %43
  %45 = load i32, ptr %44, align 4, !tbaa !22
  %46 = sub nsw i32 %2, %41
  %47 = shl nuw i32 1, %46
  store i8 %37, ptr %33, align 1, !tbaa !7
  %48 = trunc i32 %42 to i8
  %49 = add i32 %47, %45
  %50 = icmp ult i32 %45, %49
  br i1 %50, label %.lr.ph78.us, label %.loopexit.us

51:                                               ; preds = %.lr.ph78.us, %51
  %indvars.iv95 = phi i64 [ %55, %.lr.ph78.us ], [ %indvars.iv.next96, %51 ]
  %52 = getelementptr inbounds nuw %struct.HUF_DDescX6, ptr %0, i64 %indvars.iv95
  store i8 %48, ptr %52, align 1, !tbaa !7
  %.sroa.5.0..sroa_idx68.us = getelementptr inbounds nuw i8, ptr %52, i64 1
  store i8 %27, ptr %.sroa.5.0..sroa_idx68.us, align 1, !tbaa !7
  %53 = getelementptr inbounds nuw %union.HUF_DSeqX6, ptr %1, i64 %indvars.iv95
  store i32 %54, ptr %53, align 4, !tbaa !7
  %indvars.iv.next96 = add nuw nsw i64 %indvars.iv95, 1
  %exitcond99.not = icmp eq i64 %indvars.iv.next96, %wide.trip.count98
  br i1 %exitcond99.not, label %.loopexit.us, label %51, !llvm.loop !90

.loopexit.us:                                     ; preds = %51, %.lr.ph80.split.us
  store i32 %49, ptr %44, align 4, !tbaa !22
  %indvars.iv.next101 = add nuw nsw i64 %indvars.iv100, 1
  %exitcond104.not = icmp eq i64 %indvars.iv.next101, %wide.trip.count103
  br i1 %exitcond104.not, label %._crit_edge, label %.lr.ph80.split.us, !llvm.loop !91

.lr.ph78.us:                                      ; preds = %.lr.ph80.split.us
  %54 = load i32, ptr %14, align 4, !tbaa !7
  %55 = zext i32 %45 to i64
  %wide.trip.count98 = zext i32 %49 to i64
  br label %51

.lr.ph80.split:                                   ; preds = %.lr.ph80, %.loopexit
  %indvars.iv90 = phi i64 [ %indvars.iv.next91, %.loopexit ], [ %35, %.lr.ph80 ]
  %56 = getelementptr inbounds nuw %struct.sortedSymbol_t, ptr %7, i64 %indvars.iv90
  %57 = load i8, ptr %56, align 1, !tbaa !48
  %58 = getelementptr inbounds nuw i8, ptr %56, i64 1
  %59 = load i8, ptr %58, align 1, !tbaa !50
  %60 = zext i8 %59 to i32
  %61 = sub i32 %10, %60
  %62 = add i32 %61, %4
  %63 = zext i8 %59 to i64
  %64 = getelementptr inbounds nuw [17 x i32], ptr %15, i64 0, i64 %63
  %65 = load i32, ptr %64, align 4, !tbaa !22
  %66 = sub nsw i32 %2, %61
  %67 = shl nuw i32 1, %66
  store i8 %57, ptr %33, align 1, !tbaa !7
  %68 = trunc i32 %62 to i8
  %69 = sub nsw i32 %2, %62
  %.not = icmp slt i32 %69, %17
  br i1 %.not, label %77, label %70

70:                                               ; preds = %.lr.ph80.split
  %71 = add nsw i32 %16, %62
  %spec.store.select = tail call i32 @llvm.smax.i32(i32 %71, i32 1)
  %72 = zext i32 %65 to i64
  %73 = getelementptr inbounds nuw %struct.HUF_DDescX6, ptr %0, i64 %72
  %74 = getelementptr inbounds nuw %union.HUF_DSeqX6, ptr %1, i64 %72
  %75 = load i32, ptr %14, align 4
  %76 = trunc i32 %62 to i16
  %.sroa.0.0.insert.ext = and i16 %76, 255
  %.sroa.0.0.insert.insert = or disjoint i16 %.sroa.0.0.insert.ext, %.sroa.5.0.insert.shift
  tail call fastcc void @HUF_fillDTableX6LevelN(ptr noundef %73, ptr noundef %74, i32 noundef %66, ptr noundef %3, i32 noundef %62, i32 noundef %spec.store.select, i32 noundef %6, ptr noundef %7, i32 noundef %8, ptr noundef %9, i32 noundef %10, i32 %75, i16 %.sroa.0.0.insert.insert)
  %.pre = add i32 %67, %65
  br label %.loopexit

77:                                               ; preds = %.lr.ph80.split
  %78 = add i32 %67, %65
  %79 = icmp ult i32 %65, %78
  br i1 %79, label %.lr.ph78, label %.loopexit

.lr.ph78:                                         ; preds = %77
  %80 = load i32, ptr %14, align 4, !tbaa !7
  %81 = zext i32 %65 to i64
  %wide.trip.count88 = zext i32 %78 to i64
  br label %82

82:                                               ; preds = %.lr.ph78, %82
  %indvars.iv85 = phi i64 [ %81, %.lr.ph78 ], [ %indvars.iv.next86, %82 ]
  %83 = getelementptr inbounds nuw %struct.HUF_DDescX6, ptr %0, i64 %indvars.iv85
  store i8 %68, ptr %83, align 1, !tbaa !7
  %.sroa.5.0..sroa_idx68 = getelementptr inbounds nuw i8, ptr %83, i64 1
  store i8 %27, ptr %.sroa.5.0..sroa_idx68, align 1, !tbaa !7
  %84 = getelementptr inbounds nuw %union.HUF_DSeqX6, ptr %1, i64 %indvars.iv85
  store i32 %80, ptr %84, align 4, !tbaa !7
  %indvars.iv.next86 = add nuw nsw i64 %indvars.iv85, 1
  %exitcond89.not = icmp eq i64 %indvars.iv.next86, %wide.trip.count88
  br i1 %exitcond89.not, label %.loopexit, label %82, !llvm.loop !90

.loopexit:                                        ; preds = %82, %77, %70
  %.pre-phi = phi i32 [ %78, %77 ], [ %.pre, %70 ], [ %78, %82 ]
  store i32 %.pre-phi, ptr %64, align 4, !tbaa !22
  %indvars.iv.next91 = add nuw nsw i64 %indvars.iv90, 1
  %exitcond94.not = icmp eq i64 %indvars.iv.next91, %wide.trip.count103
  br i1 %exitcond94.not, label %._crit_edge, label %.lr.ph80.split, !llvm.loop !91

._crit_edge:                                      ; preds = %.loopexit, %.loopexit.us, %.loopexit75
  call void @llvm.lifetime.end.p0(i64 68, ptr nonnull %15) #20
  ret void
}